; Function Attrs: mustprogress nofree norecurse nosync nounwind willreturn memory(argmem: readwrite) uwtable
define hidden void @_ZN10duckdb_re24Prog4Inst14InitEmptyWidthENS_7EmptyOpEj(ptr noundef nonnull align 4 captures(none) dereferenceable(8) initializes((4, 8)) %0, i32 noundef %1, i32 noundef %2) local_unnamed_addr #0 align 2 {
  %4 = shl i32 %2, 4
  %5 = load i32, ptr %0, align 4, !tbaa !3
  %6 = and i32 %5, 8
  %7 = or disjoint i32 %6, %4
  %8 = or disjoint i32 %7, 4
  store i32 %8, ptr %0, align 4, !tbaa !3
  %9 = getelementptr inbounds nuw i8, ptr %0, i64 4
  store i32 %1, ptr %9, align 4, !tbaa !8
  ret void
}